target datalayout = "e-m:e-p270:32:32-p271:32:32-p272:64:64-i64:64-i128:128-f80:128-n8:16:32:64-S128"
target triple = "x86_64-pc-linux-gnu"

%struct._object = type { %union.anon, ptr }
%union.anon = type { i64 }
%struct.zlibstate = type { ptr, ptr, ptr, ptr }
%struct.Py_buffer = type { ptr, ptr, i64, i64, i32, i32, ptr, ptr, ptr, ptr, ptr }
%struct.z_stream_s = type { ptr, i32, i64, ptr, i32, i64, ptr, ptr, ptr, ptr, ptr, i32, i64, i64 }
%struct.compobject = type { %struct._object, %struct.z_stream_s, ptr, ptr, i8, i8, ptr, ptr }

@.str.16 = private unnamed_addr constant [25 x i8] c"library version mismatch\00", align 1
@.str.17 = private unnamed_addr constant [31 x i8] c"incomplete or truncated stream\00", align 1
@.str.18 = private unnamed_addr constant [26 x i8] c"inconsistent stream state\00", align 1
@.str.19 = private unnamed_addr constant [19 x i8] c"invalid input data\00", align 1
@.str.20 = private unnamed_addr constant [12 x i8] c"Error %d %s\00", align 1
@.str.21 = private unnamed_addr constant [20 x i8] c"Error %d %s: %.200s\00", align 1
@PyExc_OverflowError = external global ptr, align 8
@.str.27 = private unnamed_addr constant [45 x i8] c"zdict length does not fit in an unsigned int\00", align 1
@.str.44 = private unnamed_addr constant [20 x i8] c"while setting zdict\00", align 1

; Function Attrs: nounwind uwtable
define internal void @zlib_error(ptr noundef %0, ptr noundef byval(%struct.z_stream_s) align 8 %1, i32 noundef %2, ptr noundef %3) #0 {
  %5 = alloca ptr, align 8
  %6 = alloca i32, align 4
  %7 = alloca ptr, align 8
  %8 = alloca ptr, align 8
  store ptr %0, ptr %5, align 8, !tbaa !8
  store i32 %2, ptr %6, align 4, !tbaa !12
  store ptr %3, ptr %7, align 8, !tbaa !30
  call void @llvm.lifetime.start.p0(i64 8, ptr %8) #7
  store ptr null, ptr %8, align 8, !tbaa !30
  %9 = load i32, ptr %6, align 4, !tbaa !12
  %10 = icmp eq i32 %9, -6
  br i1 %10, label %11, label %12

11:                                               ; preds = %4
  store ptr @.str.16, ptr %8, align 8, !tbaa !30
  br label %12

12:                                               ; preds = %11, %4
  %13 = load ptr, ptr %8, align 8, !tbaa !30
  %14 = icmp eq ptr %13, null
  br i1 %14, label %15, label %18

15:                                               ; preds = %12
  %16 = getelementptr inbounds nuw %struct.z_stream_s, ptr %1, i32 0, i32 6
  %17 = load ptr, ptr %16, align 8, !tbaa !51
  store ptr %17, ptr %8, align 8, !tbaa !30
  br label %18

18:                                               ; preds = %15, %12
  %19 = load ptr, ptr %8, align 8, !tbaa !30
  %20 = icmp eq ptr %19, null
  br i1 %20, label %21, label %27

21:                                               ; preds = %18
  %22 = load i32, ptr %6, align 4, !tbaa !12
  switch i32 %22, label %26 [
    i32 -5, label %23
    i32 -2, label %24
    i32 -3, label %25
  ]

23:                                               ; preds = %21
  store ptr @.str.17, ptr %8, align 8, !tbaa !30
  br label %26

24:                                               ; preds = %21
  store ptr @.str.18, ptr %8, align 8, !tbaa !30
  br label %26

25:                                               ; preds = %21
  store ptr @.str.19, ptr %8, align 8, !tbaa !30
  br label %26

26:                                               ; preds = %21, %25, %24, %23
  br label %27

27:                                               ; preds = %26, %18
  %28 = load ptr, ptr %8, align 8, !tbaa !30
  %29 = icmp eq ptr %28, null
  br i1 %29, label %30, label %37

30:                                               ; preds = %27
  %31 = load ptr, ptr %5, align 8, !tbaa !8
  %32 = getelementptr inbounds nuw %struct.zlibstate, ptr %31, i32 0, i32 3
  %33 = load ptr, ptr %32, align 8, !tbaa !16
  %34 = load i32, ptr %6, align 4, !tbaa !12
  %35 = load ptr, ptr %7, align 8, !tbaa !30
  %36 = call ptr (ptr, ptr, ...) @PyErr_Format(ptr noundef %33, ptr noundef @.str.20, i32 noundef %34, ptr noundef %35)
  br label %45

37:                                               ; preds = %27
  %38 = load ptr, ptr %5, align 8, !tbaa !8
  %39 = getelementptr inbounds nuw %struct.zlibstate, ptr %38, i32 0, i32 3
  %40 = load ptr, ptr %39, align 8, !tbaa !16
  %41 = load i32, ptr %6, align 4, !tbaa !12
  %42 = load ptr, ptr %7, align 8, !tbaa !30
  %43 = load ptr, ptr %8, align 8, !tbaa !30
  %44 = call ptr (ptr, ptr, ...) @PyErr_Format(ptr noundef %40, ptr noundef @.str.21, i32 noundef %41, ptr noundef %42, ptr noundef %43)
  br label %45

45:                                               ; preds = %37, %30
  call void @llvm.lifetime.end.p0(i64 8, ptr %8) #7
  ret void
}

; Function Attrs: nounwind uwtable
define internal i32 @set_inflate_zdict(ptr noundef %0, ptr noundef %1) #0 {
  %3 = alloca i32, align 4
  %4 = alloca ptr, align 8
  %5 = alloca ptr, align 8
  %6 = alloca %struct.Py_buffer, align 8
  %7 = alloca i32, align 4
  %8 = alloca i32, align 4
  store ptr %0, ptr %4, align 8, !tbaa !8
  store ptr %1, ptr %5, align 8, !tbaa !8
  call void @llvm.lifetime.start.p0(i64 80, ptr %6) #7
  %9 = load ptr, ptr %5, align 8, !tbaa !8
  %10 = getelementptr inbounds nuw %struct.compobject, ptr %9, i32 0, i32 6
  %11 = load ptr, ptr %10, align 8, !tbaa !73
  %12 = call i32 @PyObject_GetBuffer(ptr noundef %11, ptr noundef %6, i32 noundef 0)
  %13 = icmp eq i32 %12, -1
  br i1 %13, label %14, label %15

14:                                               ; preds = %2
  store i32 -1, ptr %3, align 4
  store i32 1, ptr %7, align 4
  br label %39

15:                                               ; preds = %2
  %16 = getelementptr inbounds nuw %struct.Py_buffer, ptr %6, i32 0, i32 2
  %17 = load i64, ptr %16, align 8, !tbaa !28
  %18 = icmp ugt i64 %17, 4294967295
  br i1 %18, label %19, label %21

19:                                               ; preds = %15
  %20 = load ptr, ptr @PyExc_OverflowError, align 8, !tbaa !3
  call void @PyErr_SetString(ptr noundef %20, ptr noundef @.str.27)
  call void @PyBuffer_Release(ptr noundef %6)
  store i32 -1, ptr %3, align 4
  store i32 1, ptr %7, align 4
  br label %39

21:                                               ; preds = %15
  call void @llvm.lifetime.start.p0(i64 4, ptr %8) #7
  %22 = load ptr, ptr %5, align 8, !tbaa !8
  %23 = getelementptr inbounds nuw %struct.compobject, ptr %22, i32 0, i32 1
  %24 = getelementptr inbounds nuw %struct.Py_buffer, ptr %6, i32 0, i32 0
  %25 = load ptr, ptr %24, align 8, !tbaa !29
  %26 = getelementptr inbounds nuw %struct.Py_buffer, ptr %6, i32 0, i32 2
  %27 = load i64, ptr %26, align 8, !tbaa !28
  %28 = trunc i64 %27 to i32
  %29 = call i32 @inflateSetDictionary(ptr noundef %23, ptr noundef %25, i32 noundef %28)
  store i32 %29, ptr %8, align 4, !tbaa !12
  call void @PyBuffer_Release(ptr noundef %6)
  %30 = load i32, ptr %8, align 4, !tbaa !12
  %31 = icmp ne i32 %30, 0
  br i1 %31, label %32, label %37

32:                                               ; preds = %21
  %33 = load ptr, ptr %4, align 8, !tbaa !8
  %34 = load ptr, ptr %5, align 8, !tbaa !8
  %35 = getelementptr inbounds nuw %struct.compobject, ptr %34, i32 0, i32 1
  %36 = load i32, ptr %8, align 4, !tbaa !12
  call void @zlib_error(ptr noundef %33, ptr noundef byval(%struct.z_stream_s) align 8 %35, i32 noundef %36, ptr noundef @.str.44)
  store i32 -1, ptr %3, align 4
  store i32 1, ptr %7, align 4
  br label %38

37:                                               ; preds = %21
  store i32 0, ptr %3, align 4
  store i32 1, ptr %7, align 4
  br label %38

38:                                               ; preds = %37, %32
  call void @llvm.lifetime.end.p0(i64 4, ptr %8) #7
  br label %39

39:                                               ; preds = %38, %19, %14
  call void @llvm.lifetime.end.p0(i64 80, ptr %6) #7
  %40 = load i32, ptr %3, align 4
  ret i32 %40
}